target datalayout = "e-m:e-p270:32:32-p271:32:32-p272:64:64-i64:64-i128:128-f80:128-n8:16:32:64-S128"
target triple = "x86_64-pc-linux-gnu"

%struct.H5FD_onion_fapl_info_t = type { i8, i64, i32, i32, i64, i8, i8, [256 x i8] }
%struct.H5FD_onion_t = type { %struct.H5FD_t, %struct.H5FD_onion_fapl_info_t, i8, i8, ptr, ptr, ptr, ptr, %struct.H5FD_onion_header_t, %struct.H5FD_onion_history_t, %struct.H5FD_onion_revision_record_t, ptr, i64, i64, i64, i64 }
%struct.H5FD_t = type { i64, ptr, i64, i32, i64, i64, i64, i64, i64, i8 }
%struct.H5FD_onion_header_t = type { i8, i32, i32, i64, i64, i64, i32 }
%struct.H5FD_onion_history_t = type { i8, i64, ptr, i32 }
%struct.H5FD_onion_revision_record_t = type { i8, i64, i64, [16 x i8], i64, %struct.H5FD_onion_archival_index_t, i32, ptr, i32 }
%struct.H5FD_onion_archival_index_t = type { i8, i32, i64, ptr }

@.str = private unnamed_addr constant [103 x i8] c"generated/home/dtcxzyw/WorkSpace/Projects/compilers/llvm-opt-benchmark/bench/hdf5/hdf5/src/H5FDonion.c\00", align 1
@H5E_VFL_g = external global i64, align 8
@__func__.H5FD__onion_write_final_history = private unnamed_addr constant [32 x i8] c"H5FD__onion_write_final_history\00", align 1
@H5E_WRITEERROR_g = external global i64, align 8
@.str.22 = private unnamed_addr constant [26 x i8] c"can't write final history\00", align 1
@.str.23 = private unnamed_addr constant [44 x i8] c"written history differed from expected size\00", align 1

; Function Attrs: nounwind uwtable
define i32 @H5FD__onion_write_final_history(ptr noundef %0) #0 {
  %2 = alloca ptr, align 8
  %3 = alloca i64, align 8
  %4 = alloca i32, align 4
  %5 = alloca i8, align 1
  store ptr %0, ptr %2, align 8
  store i64 0, ptr %3, align 8
  store i32 0, ptr %4, align 4
  store i8 0, ptr %5, align 1
  %6 = load ptr, ptr %2, align 8
  %7 = getelementptr inbounds %struct.H5FD_onion_t, ptr %6, i32 0, i32 9
  %8 = load ptr, ptr %2, align 8
  %9 = getelementptr inbounds %struct.H5FD_onion_t, ptr %8, i32 0, i32 5
  %10 = load ptr, ptr %9, align 8
  %11 = load ptr, ptr %2, align 8
  %12 = getelementptr inbounds %struct.H5FD_onion_t, ptr %11, i32 0, i32 12
  %13 = load i64, ptr %12, align 8
  %14 = load ptr, ptr %2, align 8
  %15 = getelementptr inbounds %struct.H5FD_onion_t, ptr %14, i32 0, i32 12
  %16 = load i64, ptr %15, align 8
  %17 = call i64 @H5FD__onion_write_history(ptr noundef %7, ptr noundef %10, i64 noundef %13, i64 noundef %16)
  store i64 %17, ptr %3, align 8
  %18 = icmp eq i64 0, %17
  br i1 %18, label %19, label %34

19:                                               ; preds = %1
  br label %20

20:                                               ; preds = %19
  br label %21

21:                                               ; preds = %20
  br label %22

22:                                               ; preds = %21
  %23 = load i64, ptr @H5E_VFL_g, align 8
  %24 = load i64, ptr @H5E_WRITEERROR_g, align 8
  %25 = call i32 (ptr, ptr, i32, i64, i64, ptr, ...) @H5E_printf_stack(ptr noundef @.str, ptr noundef @__func__.H5FD__onion_write_final_history, i32 noundef 1747, i64 noundef %23, i64 noundef %24, ptr noundef @.str.22)
  br label %26

26:                                               ; preds = %22
  store i8 1, ptr %5, align 1
  %27 = load i8, ptr %5, align 1
  %28 = trunc i8 %27 to i1
  %29 = zext i1 %28 to i8
  store i8 %29, ptr %5, align 1
  br label %30

30:                                               ; preds = %26
  br label %31

31:                                               ; preds = %30
  store i32 -1, ptr %4, align 4
  br label %62

32:                                               ; No predecessors!
  br label %33

33:                                               ; preds = %32
  br label %34

34:                                               ; preds = %33, %1
  %35 = load i64, ptr %3, align 8
  %36 = load ptr, ptr %2, align 8
  %37 = getelementptr inbounds %struct.H5FD_onion_t, ptr %36, i32 0, i32 8
  %38 = getelementptr inbounds %struct.H5FD_onion_header_t, ptr %37, i32 0, i32 5
  %39 = load i64, ptr %38, align 8
  %40 = icmp ne i64 %35, %39
  br i1 %40, label %41, label %56

41:                                               ; preds = %34
  br label %42

42:                                               ; preds = %41
  br label %43

43:                                               ; preds = %42
  br label %44

44:                                               ; preds = %43
  %45 = load i64, ptr @H5E_VFL_g, align 8
  %46 = load i64, ptr @H5E_WRITEERROR_g, align 8
  %47 = call i32 (ptr, ptr, i32, i64, i64, ptr, ...) @H5E_printf_stack(ptr noundef @.str, ptr noundef @__func__.H5FD__onion_write_final_history, i32 noundef 1750, i64 noundef %45, i64 noundef %46, ptr noundef @.str.23)
  br label %48

48:                                               ; preds = %44
  store i8 1, ptr %5, align 1
  %49 = load i8, ptr %5, align 1
  %50 = trunc i8 %49 to i1
  %51 = zext i1 %50 to i8
  store i8 %51, ptr %5, align 1
  br label %52

52:                                               ; preds = %48
  br label %53

53:                                               ; preds = %52
  store i32 -1, ptr %4, align 4
  br label %62

54:                                               ; No predecessors!
  br label %55

55:                                               ; preds = %54
  br label %56

56:                                               ; preds = %55, %34
  %57 = load i64, ptr %3, align 8
  %58 = load ptr, ptr %2, align 8
  %59 = getelementptr inbounds %struct.H5FD_onion_t, ptr %58, i32 0, i32 12
  %60 = load i64, ptr %59, align 8
  %61 = add i64 %60, %57
  store i64 %61, ptr %59, align 8
  br label %62

62:                                               ; preds = %56, %53, %31
  %63 = load i32, ptr %4, align 4
  ret i32 %63
}