; Function Attrs: nounwind uwtable
define range(i32 -1, 1) i32 @H5FD__onion_write_final_history(ptr noundef %0) local_unnamed_addr #0 {
  %2 = getelementptr inbounds nuw i8, ptr %0, i64 464
  %3 = getelementptr inbounds nuw i8, ptr %0, i64 392
  %4 = load ptr, ptr %3, align 8
  %5 = getelementptr inbounds nuw i8, ptr %0, i64 600
  %6 = load i64, ptr %5, align 8
  %7 = tail call i64 @H5FD__onion_write_history(ptr noundef nonnull %2, ptr noundef %4, i64 noundef %6, i64 noundef %6) #18
  %8 = icmp eq i64 %7, 0
  br i1 %8, label %9, label %13

9:                                                ; preds = %1
  %10 = load i64, ptr @H5E_VFL_g, align 8
  %11 = load i64, ptr @H5E_WRITEERROR_g, align 8
  %12 = tail call i32 (ptr, ptr, i32, i64, i64, ptr, ...) @H5E_printf_stack(ptr noundef nonnull @.str, ptr noundef nonnull @__func__.H5FD__onion_write_final_history, i32 noundef 1747, i64 noundef %10, i64 noundef %11, ptr noundef nonnull @.str.22) #18
  br label %23

13:                                               ; preds = %1
  %14 = getelementptr inbounds nuw i8, ptr %0, i64 448
  %15 = load i64, ptr %14, align 8
  %.not = icmp eq i64 %7, %15
  br i1 %.not, label %20, label %16

16:                                               ; preds = %13
  %17 = load i64, ptr @H5E_VFL_g, align 8
  %18 = load i64, ptr @H5E_WRITEERROR_g, align 8
  %19 = tail call i32 (ptr, ptr, i32, i64, i64, ptr, ...) @H5E_printf_stack(ptr noundef nonnull @.str, ptr noundef nonnull @__func__.H5FD__onion_write_final_history, i32 noundef 1750, i64 noundef %17, i64 noundef %18, ptr noundef nonnull @.str.23) #18
  br label %23

20:                                               ; preds = %13
  %21 = load i64, ptr %5, align 8
  %22 = add i64 %21, %7
  store i64 %22, ptr %5, align 8
  br label %23

23:                                               ; preds = %20, %16, %9
  %.0 = phi i32 [ -1, %9 ], [ -1, %16 ], [ 0, %20 ]
  ret i32 %.0
}